; Function Attrs: mustprogress uwtable
define hidden noundef zeroext i1 @_ZN18OpenImageIO_v2_6_08ICOInput5closeEv(ptr noundef nonnull align 8 dereferenceable(312) %this) unnamed_addr #5 align 2 personality ptr @__gxx_personality_v0 {
entry:
  %m_png = getelementptr inbounds i8, ptr %this, i64 272
  %0 = load ptr, ptr %m_png, align 8
  %tobool.not = icmp eq ptr %0, null
  br i1 %tobool.not, label %if.end, label %land.lhs.true

land.lhs.true:                                    ; preds = %entry
  %m_info = getelementptr inbounds i8, ptr %this, i64 280
  %1 = load ptr, ptr %m_info, align 8
  %tobool2.not = icmp eq ptr %1, null
  br i1 %tobool2.not, label %if.end, label %_ZN18OpenImageIO_v2_6_07PNG_pvt19destroy_read_structERP14png_struct_defRP12png_info_def.exit

_ZN18OpenImageIO_v2_6_07PNG_pvt19destroy_read_structERP14png_struct_defRP12png_info_def.exit: ; preds = %land.lhs.true
  tail call void @png_destroy_read_struct(ptr noundef nonnull %m_png, ptr noundef nonnull %m_info, ptr noundef null)
  br label %if.end

if.end:                                           ; preds = %_ZN18OpenImageIO_v2_6_07PNG_pvt19destroy_read_structERP14png_struct_defRP12png_info_def.exit, %land.lhs.true, %entry
  %m_subimage.i = getelementptr inbounds i8, ptr %this, i64 248
  store i32 -1, ptr %m_subimage.i, align 8
  %m_ico.i = getelementptr inbounds i8, ptr %this, i64 216
  tail call void @llvm.memset.p0.i64(ptr noundef nonnull align 8 dereferenceable(6) %m_ico.i, i8 0, i64 6, i1 false)
  %m_buf.i = getelementptr inbounds i8, ptr %this, i64 224
  tail call void @llvm.memset.p0.i64(ptr noundef nonnull align 8 dereferenceable(16) %m_png, i8 0, i64 16, i1 false)
  %2 = load ptr, ptr %m_buf.i, align 8
  %_M_finish.i.i.i = getelementptr inbounds i8, ptr %this, i64 232
  %3 = load ptr, ptr %_M_finish.i.i.i, align 8
  %tobool.not.i.i.i = icmp eq ptr %3, %2
  br i1 %tobool.not.i.i.i, label %_ZN18OpenImageIO_v2_6_08ICOInput4initEv.exit, label %invoke.cont.i.i.i

invoke.cont.i.i.i:                                ; preds = %if.end
  store ptr %2, ptr %_M_finish.i.i.i, align 8
  br label %_ZN18OpenImageIO_v2_6_08ICOInput4initEv.exit

_ZN18OpenImageIO_v2_6_08ICOInput4initEv.exit:     ; preds = %if.end, %invoke.cont.i.i.i
  tail call void @_ZN18OpenImageIO_v2_6_010ImageInput13ioproxy_clearEv(ptr noundef nonnull align 8 dereferenceable(184) %this)
  ret i1 true
}